; Function Attrs: nofree norecurse nosync nounwind memory(argmem: readwrite, inaccessiblemem: readwrite) uwtable
define internal void @avg4_c(ptr noundef captures(none) %0, i64 noundef %1, ptr noundef readonly captures(none) %2, i64 noundef %3, i32 noundef %4, i32 %5, i32 %6) #8 {
.split7:
  tail call void @llvm.experimental.noalias.scope.decl(metadata !176)
  tail call void @llvm.experimental.noalias.scope.decl(metadata !179)
  br label %.split

.split:                                           ; preds = %.split, %.split7
  %.019.i = phi i32 [ %4, %.split7 ], [ %16, %.split ]
  %.018.i = phi ptr [ %0, %.split7 ], [ %14, %.split ]
  %.017.i = phi ptr [ %2, %.split7 ], [ %15, %.split ]
  %7 = load i32, ptr %.018.i, align 4, !tbaa !8, !alias.scope !176, !noalias !179
  %8 = load i32, ptr %.017.i, align 1, !tbaa !8, !alias.scope !179, !noalias !176
  %9 = or i32 %8, %7
  %10 = xor i32 %8, %7
  %11 = lshr i32 %10, 1
  %12 = and i32 %11, 2139062143
  %13 = sub i32 %9, %12
  store i32 %13, ptr %.018.i, align 4, !tbaa !8, !alias.scope !176, !noalias !179
  %14 = getelementptr inbounds i8, ptr %.018.i, i64 %1
  %15 = getelementptr inbounds i8, ptr %.017.i, i64 %3
  %16 = add nsw i32 %.019.i, -1
  %.not.i = icmp eq i32 %16, 0
  br i1 %.not.i, label %avg_c.exit, label %.split, !llvm.loop !144

avg_c.exit:                                       ; preds = %.split
  ret void
}